target datalayout = "e-m:e-p270:32:32-p271:32:32-p272:64:64-i64:64-i128:128-f80:128-n8:16:32:64-S128"
target triple = "x86_64-pc-linux-gnu"

; Function Attrs: nounwind uwtable
define internal void @mix8to2_s32(ptr noundef %0, ptr noundef %1, ptr noundef %2, i32 noundef %3) #0 {
  %5 = alloca ptr, align 8
  %6 = alloca ptr, align 8
  %7 = alloca ptr, align 8
  %8 = alloca i32, align 4
  %9 = alloca i32, align 4
  %10 = alloca i64, align 8
  store ptr %0, ptr %5, align 8, !tbaa !135
  store ptr %1, ptr %6, align 8, !tbaa !135
  store ptr %2, ptr %7, align 8, !tbaa !86
  store i32 %3, ptr %8, align 4, !tbaa !11
  call void @llvm.lifetime.start.p0(i64 4, ptr %9) #9
  store i32 0, ptr %9, align 4, !tbaa !11
  br label %11

11:                                               ; preds = %147, %4
  %12 = load i32, ptr %9, align 4, !tbaa !11
  %13 = load i32, ptr %8, align 4, !tbaa !11
  %14 = icmp slt i32 %12, %13
  br i1 %14, label %15, label %150

15:                                               ; preds = %11
  call void @llvm.lifetime.start.p0(i64 8, ptr %10) #9
  %16 = load ptr, ptr %6, align 8, !tbaa !135
  %17 = getelementptr inbounds ptr, ptr %16, i64 2
  %18 = load ptr, ptr %17, align 8, !tbaa !86
  %19 = load i32, ptr %9, align 4, !tbaa !11
  %20 = sext i32 %19 to i64
  %21 = getelementptr inbounds i32, ptr %18, i64 %20
  %22 = load i32, ptr %21, align 4, !tbaa !11
  %23 = sext i32 %22 to i64
  %24 = load ptr, ptr %7, align 8, !tbaa !86
  %25 = getelementptr inbounds i32, ptr %24, i64 2
  %26 = load i32, ptr %25, align 4, !tbaa !11
  %27 = sext i32 %26 to i64
  %28 = mul nsw i64 %23, %27
  %29 = load ptr, ptr %6, align 8, !tbaa !135
  %30 = getelementptr inbounds ptr, ptr %29, i64 3
  %31 = load ptr, ptr %30, align 8, !tbaa !86
  %32 = load i32, ptr %9, align 4, !tbaa !11
  %33 = sext i32 %32 to i64
  %34 = getelementptr inbounds i32, ptr %31, i64 %33
  %35 = load i32, ptr %34, align 4, !tbaa !11
  %36 = sext i32 %35 to i64
  %37 = load ptr, ptr %7, align 8, !tbaa !86
  %38 = getelementptr inbounds i32, ptr %37, i64 3
  %39 = load i32, ptr %38, align 4, !tbaa !11
  %40 = sext i32 %39 to i64
  %41 = mul nsw i64 %36, %40
  %42 = add nsw i64 %28, %41
  store i64 %42, ptr %10, align 8, !tbaa !37
  %43 = load i64, ptr %10, align 8, !tbaa !37
  %44 = load ptr, ptr %6, align 8, !tbaa !135
  %45 = getelementptr inbounds ptr, ptr %44, i64 0
  %46 = load ptr, ptr %45, align 8, !tbaa !86
  %47 = load i32, ptr %9, align 4, !tbaa !11
  %48 = sext i32 %47 to i64
  %49 = getelementptr inbounds i32, ptr %46, i64 %48
  %50 = load i32, ptr %49, align 4, !tbaa !11
  %51 = sext i32 %50 to i64
  %52 = load ptr, ptr %7, align 8, !tbaa !86
  %53 = getelementptr inbounds i32, ptr %52, i64 0
  %54 = load i32, ptr %53, align 4, !tbaa !11
  %55 = sext i32 %54 to i64
  %56 = mul nsw i64 %51, %55
  %57 = add nsw i64 %43, %56
  %58 = load ptr, ptr %6, align 8, !tbaa !135
  %59 = getelementptr inbounds ptr, ptr %58, i64 4
  %60 = load ptr, ptr %59, align 8, !tbaa !86
  %61 = load i32, ptr %9, align 4, !tbaa !11
  %62 = sext i32 %61 to i64
  %63 = getelementptr inbounds i32, ptr %60, i64 %62
  %64 = load i32, ptr %63, align 4, !tbaa !11
  %65 = sext i32 %64 to i64
  %66 = load ptr, ptr %7, align 8, !tbaa !86
  %67 = getelementptr inbounds i32, ptr %66, i64 4
  %68 = load i32, ptr %67, align 4, !tbaa !11
  %69 = sext i32 %68 to i64
  %70 = mul nsw i64 %65, %69
  %71 = add nsw i64 %57, %70
  %72 = load ptr, ptr %6, align 8, !tbaa !135
  %73 = getelementptr inbounds ptr, ptr %72, i64 6
  %74 = load ptr, ptr %73, align 8, !tbaa !86
  %75 = load i32, ptr %9, align 4, !tbaa !11
  %76 = sext i32 %75 to i64
  %77 = getelementptr inbounds i32, ptr %74, i64 %76
  %78 = load i32, ptr %77, align 4, !tbaa !11
  %79 = sext i32 %78 to i64
  %80 = load ptr, ptr %7, align 8, !tbaa !86
  %81 = getelementptr inbounds i32, ptr %80, i64 6
  %82 = load i32, ptr %81, align 4, !tbaa !11
  %83 = sext i32 %82 to i64
  %84 = mul nsw i64 %79, %83
  %85 = add nsw i64 %71, %84
  %86 = add nsw i64 %85, 16384
  %87 = ashr i64 %86, 15
  %88 = trunc i64 %87 to i32
  %89 = load ptr, ptr %5, align 8, !tbaa !135
  %90 = getelementptr inbounds ptr, ptr %89, i64 0
  %91 = load ptr, ptr %90, align 8, !tbaa !86
  %92 = load i32, ptr %9, align 4, !tbaa !11
  %93 = sext i32 %92 to i64
  %94 = getelementptr inbounds i32, ptr %91, i64 %93
  store i32 %88, ptr %94, align 4, !tbaa !11
  %95 = load i64, ptr %10, align 8, !tbaa !37
  %96 = load ptr, ptr %6, align 8, !tbaa !135
  %97 = getelementptr inbounds ptr, ptr %96, i64 1
  %98 = load ptr, ptr %97, align 8, !tbaa !86
  %99 = load i32, ptr %9, align 4, !tbaa !11
  %100 = sext i32 %99 to i64
  %101 = getelementptr inbounds i32, ptr %98, i64 %100
  %102 = load i32, ptr %101, align 4, !tbaa !11
  %103 = sext i32 %102 to i64
  %104 = load ptr, ptr %7, align 8, !tbaa !86
  %105 = getelementptr inbounds i32, ptr %104, i64 9
  %106 = load i32, ptr %105, align 4, !tbaa !11
  %107 = sext i32 %106 to i64
  %108 = mul nsw i64 %103, %107
  %109 = add nsw i64 %95, %108
  %110 = load ptr, ptr %6, align 8, !tbaa !135
  %111 = getelementptr inbounds ptr, ptr %110, i64 5
  %112 = load ptr, ptr %111, align 8, !tbaa !86
  %113 = load i32, ptr %9, align 4, !tbaa !11
  %114 = sext i32 %113 to i64
  %115 = getelementptr inbounds i32, ptr %112, i64 %114
  %116 = load i32, ptr %115, align 4, !tbaa !11
  %117 = sext i32 %116 to i64
  %118 = load ptr, ptr %7, align 8, !tbaa !86
  %119 = getelementptr inbounds i32, ptr %118, i64 13
  %120 = load i32, ptr %119, align 4, !tbaa !11
  %121 = sext i32 %120 to i64
  %122 = mul nsw i64 %117, %121
  %123 = add nsw i64 %109, %122
  %124 = load ptr, ptr %6, align 8, !tbaa !135
  %125 = getelementptr inbounds ptr, ptr %124, i64 7
  %126 = load ptr, ptr %125, align 8, !tbaa !86
  %127 = load i32, ptr %9, align 4, !tbaa !11
  %128 = sext i32 %127 to i64
  %129 = getelementptr inbounds i32, ptr %126, i64 %128
  %130 = load i32, ptr %129, align 4, !tbaa !11
  %131 = sext i32 %130 to i64
  %132 = load ptr, ptr %7, align 8, !tbaa !86
  %133 = getelementptr inbounds i32, ptr %132, i64 15
  %134 = load i32, ptr %133, align 4, !tbaa !11
  %135 = sext i32 %134 to i64
  %136 = mul nsw i64 %131, %135
  %137 = add nsw i64 %123, %136
  %138 = add nsw i64 %137, 16384
  %139 = ashr i64 %138, 15
  %140 = trunc i64 %139 to i32
  %141 = load ptr, ptr %5, align 8, !tbaa !135
  %142 = getelementptr inbounds ptr, ptr %141, i64 1
  %143 = load ptr, ptr %142, align 8, !tbaa !86
  %144 = load i32, ptr %9, align 4, !tbaa !11
  %145 = sext i32 %144 to i64
  %146 = getelementptr inbounds i32, ptr %143, i64 %145
  store i32 %140, ptr %146, align 4, !tbaa !11
  call void @llvm.lifetime.end.p0(i64 8, ptr %10) #9
  br label %147

147:                                              ; preds = %15
  %148 = load i32, ptr %9, align 4, !tbaa !11
  %149 = add nsw i32 %148, 1
  store i32 %149, ptr %9, align 4, !tbaa !11
  br label %11, !llvm.loop !138

150:                                              ; preds = %11
  call void @llvm.lifetime.end.p0(i64 4, ptr %9) #9
  ret void
}