; Function Attrs: nofree norecurse nosync nounwind memory(readwrite, inaccessiblemem: none) uwtable
define internal void @mix8to2_s32(ptr noundef readonly captures(none) %0, ptr noundef readonly captures(none) %1, ptr noundef readonly captures(none) %2, i32 noundef %3) #9 {
  %5 = icmp sgt i32 %3, 0
  br i1 %5, label %.lr.ph, label %._crit_edge

.lr.ph:                                           ; preds = %4
  %6 = getelementptr inbounds nuw i8, ptr %1, i64 16
  %7 = load ptr, ptr %6, align 8, !tbaa !119
  %8 = getelementptr inbounds nuw i8, ptr %2, i64 8
  %9 = getelementptr inbounds nuw i8, ptr %1, i64 24
  %10 = load ptr, ptr %9, align 8, !tbaa !119
  %11 = getelementptr inbounds nuw i8, ptr %2, i64 12
  %12 = load ptr, ptr %1, align 8, !tbaa !119
  %13 = getelementptr inbounds nuw i8, ptr %1, i64 32
  %14 = load ptr, ptr %13, align 8, !tbaa !119
  %15 = getelementptr inbounds nuw i8, ptr %2, i64 16
  %16 = getelementptr inbounds nuw i8, ptr %1, i64 48
  %17 = load ptr, ptr %16, align 8, !tbaa !119
  %18 = getelementptr inbounds nuw i8, ptr %2, i64 24
  %19 = load ptr, ptr %0, align 8, !tbaa !119
  %20 = getelementptr inbounds nuw i8, ptr %1, i64 8
  %21 = load ptr, ptr %20, align 8, !tbaa !119
  %22 = getelementptr inbounds nuw i8, ptr %2, i64 36
  %23 = getelementptr inbounds nuw i8, ptr %1, i64 40
  %24 = load ptr, ptr %23, align 8, !tbaa !119
  %25 = getelementptr inbounds nuw i8, ptr %2, i64 52
  %26 = getelementptr inbounds nuw i8, ptr %1, i64 56
  %27 = load ptr, ptr %26, align 8, !tbaa !119
  %28 = getelementptr inbounds nuw i8, ptr %2, i64 60
  %29 = getelementptr inbounds nuw i8, ptr %0, i64 8
  %30 = load ptr, ptr %29, align 8, !tbaa !119
  %wide.trip.count = zext nneg i32 %3 to i64
  br label %31

31:                                               ; preds = %.lr.ph, %31
  %indvars.iv = phi i64 [ 0, %.lr.ph ], [ %indvars.iv.next, %31 ]
  %32 = getelementptr inbounds nuw i32, ptr %7, i64 %indvars.iv
  %33 = load i32, ptr %32, align 4, !tbaa !34
  %34 = sext i32 %33 to i64
  %35 = load i32, ptr %8, align 4, !tbaa !34
  %36 = sext i32 %35 to i64
  %37 = mul nsw i64 %36, %34
  %38 = getelementptr inbounds nuw i32, ptr %10, i64 %indvars.iv
  %39 = load i32, ptr %38, align 4, !tbaa !34
  %40 = sext i32 %39 to i64
  %41 = load i32, ptr %11, align 4, !tbaa !34
  %42 = sext i32 %41 to i64
  %43 = mul nsw i64 %42, %40
  %44 = add nsw i64 %43, %37
  %45 = getelementptr inbounds nuw i32, ptr %12, i64 %indvars.iv
  %46 = load i32, ptr %45, align 4, !tbaa !34
  %47 = sext i32 %46 to i64
  %48 = load i32, ptr %2, align 4, !tbaa !34
  %49 = sext i32 %48 to i64
  %50 = mul nsw i64 %49, %47
  %51 = getelementptr inbounds nuw i32, ptr %14, i64 %indvars.iv
  %52 = load i32, ptr %51, align 4, !tbaa !34
  %53 = sext i32 %52 to i64
  %54 = load i32, ptr %15, align 4, !tbaa !34
  %55 = sext i32 %54 to i64
  %56 = mul nsw i64 %55, %53
  %57 = getelementptr inbounds nuw i32, ptr %17, i64 %indvars.iv
  %58 = load i32, ptr %57, align 4, !tbaa !34
  %59 = sext i32 %58 to i64
  %60 = load i32, ptr %18, align 4, !tbaa !34
  %61 = sext i32 %60 to i64
  %62 = mul nsw i64 %61, %59
  %63 = add i64 %44, 16384
  %64 = add i64 %63, %50
  %65 = add i64 %64, %56
  %66 = add i64 %65, %62
  %67 = lshr i64 %66, 15
  %68 = trunc i64 %67 to i32
  %69 = getelementptr inbounds nuw i32, ptr %19, i64 %indvars.iv
  store i32 %68, ptr %69, align 4, !tbaa !34
  %70 = getelementptr inbounds nuw i32, ptr %21, i64 %indvars.iv
  %71 = load i32, ptr %70, align 4, !tbaa !34
  %72 = sext i32 %71 to i64
  %73 = load i32, ptr %22, align 4, !tbaa !34
  %74 = sext i32 %73 to i64
  %75 = mul nsw i64 %74, %72
  %76 = getelementptr inbounds nuw i32, ptr %24, i64 %indvars.iv
  %77 = load i32, ptr %76, align 4, !tbaa !34
  %78 = sext i32 %77 to i64
  %79 = load i32, ptr %25, align 4, !tbaa !34
  %80 = sext i32 %79 to i64
  %81 = mul nsw i64 %80, %78
  %82 = getelementptr inbounds nuw i32, ptr %27, i64 %indvars.iv
  %83 = load i32, ptr %82, align 4, !tbaa !34
  %84 = sext i32 %83 to i64
  %85 = load i32, ptr %28, align 4, !tbaa !34
  %86 = sext i32 %85 to i64
  %87 = mul nsw i64 %86, %84
  %88 = add i64 %63, %75
  %89 = add i64 %88, %81
  %90 = add i64 %89, %87
  %91 = lshr i64 %90, 15
  %92 = trunc i64 %91 to i32
  %93 = getelementptr inbounds nuw i32, ptr %30, i64 %indvars.iv
  store i32 %92, ptr %93, align 4, !tbaa !34
  %indvars.iv.next = add nuw nsw i64 %indvars.iv, 1
  %exitcond.not = icmp eq i64 %indvars.iv.next, %wide.trip.count
  br i1 %exitcond.not, label %._crit_edge, label %31, !llvm.loop !121

._crit_edge:                                      ; preds = %31, %4
  ret void
}